; Function Attrs: mustprogress uwtable
define hidden void @_ZN19OpenColorIO_v2_5dev12MatrixOpDataC2Ev(ptr noundef nonnull align 8 dereferenceable(260) %0) unnamed_addr #3 align 2 personality ptr @__gxx_personality_v0 {
_ZNKSt6vectorIdSaIdEE12_M_check_lenEmPKc.exit.i:
  tail call void @_ZN19OpenColorIO_v2_5dev6OpDataC2Ev(ptr noundef nonnull align 8 dereferenceable(168) %0)
  store ptr getelementptr inbounds nuw inrange(-16, 88) (i8, ptr @_ZTVN19OpenColorIO_v2_5dev12MatrixOpDataE, i64 16), ptr %0, align 8, !tbaa !15
  %1 = getelementptr inbounds nuw i8, ptr %0, i64 168
  %2 = getelementptr inbounds nuw i8, ptr %0, i64 176
  %3 = getelementptr inbounds nuw i8, ptr %0, i64 192
  tail call void @llvm.memset.p0.i64(ptr noundef nonnull align 8 dereferenceable(24) %3, i8 0, i64 24, i1 false)
  store ptr getelementptr inbounds nuw inrange(-16, 72) (i8, ptr @_ZTVN19OpenColorIO_v2_5dev12MatrixOpData11MatrixArrayE, i64 16), ptr %1, align 8, !tbaa !15
  store i64 4, ptr %2, align 8, !tbaa !17
  %4 = getelementptr inbounds nuw i8, ptr %0, i64 184
  store i64 4, ptr %4, align 8, !tbaa !24
  %5 = invoke noalias noundef nonnull dereferenceable(128) ptr @_Znwm(i64 noundef 128) #37
          to label %.preheader.i.i.preheader unwind label %.body

.preheader.i.i.preheader:                         ; preds = %_ZNKSt6vectorIdSaIdEE12_M_check_lenEmPKc.exit.i
  %6 = getelementptr inbounds nuw i8, ptr %0, i64 208
  %7 = getelementptr inbounds nuw i8, ptr %0, i64 200
  store ptr %5, ptr %3, align 8, !tbaa !9
  %8 = getelementptr inbounds nuw i8, ptr %5, i64 128
  store ptr %8, ptr %7, align 8, !tbaa !25
  store ptr %8, ptr %6, align 8, !tbaa !28
  tail call void @llvm.memset.p0.i64(ptr noundef nonnull align 8 dereferenceable(128) %5, i8 0, i64 128, i1 false)
  br label %.preheader.i.i

.preheader.i.i:                                   ; preds = %.preheader.i.i.preheader, %12
  %.01417.i.i = phi i64 [ %13, %12 ], [ 0, %.preheader.i.i.preheader ]
  %9 = load ptr, ptr %3, align 8
  %.idx = shl i64 %.01417.i.i, 5
  %10 = getelementptr i8, ptr %9, i64 %.idx
  %11 = getelementptr double, ptr %10, i64 %.01417.i.i
  br label %14

12:                                               ; preds = %17
  %13 = add nuw i64 %.01417.i.i, 1
  %exitcond18.not.i.i = icmp eq i64 %13, 4
  br i1 %exitcond18.not.i.i, label %_ZN19OpenColorIO_v2_5dev12MatrixOpData11MatrixArrayC2Ev.exit, label %.preheader.i.i, !llvm.loop !26

14:                                               ; preds = %17, %.preheader.i.i
  %.016.i.i = phi i64 [ 0, %.preheader.i.i ], [ %18, %17 ]
  %15 = icmp eq i64 %.01417.i.i, %.016.i.i
  br i1 %15, label %16, label %17

16:                                               ; preds = %14
  store double 1.000000e+00, ptr %11, align 8, !tbaa !7
  br label %17

17:                                               ; preds = %16, %14
  %18 = add nuw i64 %.016.i.i, 1
  %exitcond.not.i.i = icmp eq i64 %18, 4
  br i1 %exitcond.not.i.i, label %12, label %14, !llvm.loop !27

_ZN19OpenColorIO_v2_5dev12MatrixOpData11MatrixArrayC2Ev.exit: ; preds = %12
  %19 = getelementptr inbounds nuw i8, ptr %0, i64 216
  tail call void @llvm.memset.p0.i64(ptr noundef nonnull align 8 dereferenceable(44) %19, i8 0, i64 44, i1 false)
  ret void

.body:                                            ; preds = %_ZNKSt6vectorIdSaIdEE12_M_check_lenEmPKc.exit.i
  %20 = landingpad { ptr, i32 }
          cleanup
  store ptr getelementptr inbounds nuw inrange(-16, 72) (i8, ptr @_ZTVN19OpenColorIO_v2_5dev6ArrayTIdEE, i64 16), ptr %1, align 8, !tbaa !15
  store ptr getelementptr inbounds nuw inrange(-16, 88) (i8, ptr @_ZTVN19OpenColorIO_v2_5dev6OpDataE, i64 16), ptr %0, align 8, !tbaa !15
  %21 = getelementptr inbounds nuw i8, ptr %0, i64 48
  tail call void @_ZN19OpenColorIO_v2_5dev18FormatMetadataImplD1Ev(ptr noundef nonnull align 8 dereferenceable(120) %21) #34
  resume { ptr, i32 } %20
}